; Function Attrs: mustprogress uwtable
define void @_ZN3url18AppendStringOfTypeEPKtiNS_15SharedCharTypesEPNS_12CanonOutputTIcEE(ptr noundef %0, i32 noundef %1, i32 noundef %2, ptr noundef %3) local_unnamed_addr #0 {
  %5 = alloca i32, align 4
  %6 = alloca i32, align 4
  call void @llvm.lifetime.start.p0(i64 4, ptr nonnull %5) #7
  store i32 0, ptr %5, align 4, !tbaa !3
  %7 = icmp sgt i32 %1, 0
  br i1 %7, label %.lr.ph.i, label %_ZN3url12_GLOBAL__N_120DoAppendStringOfTypeIttEEvPKT_iNS_15SharedCharTypesEPNS_12CanonOutputTIcEE.exit

.lr.ph.i:                                         ; preds = %4
  %8 = getelementptr inbounds nuw i8, ptr %3, i64 20
  %9 = getelementptr inbounds nuw i8, ptr %3, i64 16
  %.sink3.in.i.i = getelementptr inbounds nuw i8, ptr %3, i64 8
  br label %10

10:                                               ; preds = %_ZN3url12CanonOutputTIcE9push_backEc.exit.i, %.lr.ph.i
  %storemerge12.i = phi i32 [ 0, %.lr.ph.i ], [ %52, %_ZN3url12CanonOutputTIcE9push_backEc.exit.i ]
  %11 = sext i32 %storemerge12.i to i64
  %12 = getelementptr inbounds i16, ptr %0, i64 %11
  %13 = load i16, ptr %12, align 2, !tbaa !19
  %14 = icmp ugt i16 %13, 127
  br i1 %14, label %15, label %26

15:                                               ; preds = %10
  call void @llvm.lifetime.start.p0(i64 4, ptr nonnull %6) #7
  %16 = call noundef zeroext i1 @_ZN4base20ReadUnicodeCharacterEPKtiPiPj(ptr noundef nonnull %0, i32 noundef %1, ptr noundef nonnull %5, ptr noundef nonnull %6)
  br i1 %16, label %17, label %_ZN4base16IsValidCharacterEj.exit.thread6.i.i

17:                                               ; preds = %15
  %18 = load i32, ptr %6, align 4, !tbaa !3
  %19 = icmp ult i32 %18, 55296
  %20 = add i32 %18, -57344
  %or.cond.i.i.i = icmp ult i32 %20, 7632
  %or.cond9.i.i.i = or i1 %19, %or.cond.i.i.i
  br i1 %or.cond9.i.i.i, label %_ZN3url11ReadUTFCharEPKtPiiPj.exit.i, label %21

21:                                               ; preds = %17
  %22 = add i32 %18, -65008
  %or.cond3.i.i.i = icmp ult i32 %22, 1049104
  %23 = and i32 %18, 65534
  %24 = icmp ne i32 %23, 65534
  %or.cond.i.i = and i1 %or.cond3.i.i.i, %24
  br i1 %or.cond.i.i, label %_ZN3url11ReadUTFCharEPKtPiiPj.exit.i, label %_ZN4base16IsValidCharacterEj.exit.thread6.i.i

_ZN4base16IsValidCharacterEj.exit.thread6.i.i:    ; preds = %21, %15
  store i32 65533, ptr %6, align 4, !tbaa !3
  br label %_ZN3url11ReadUTFCharEPKtPiiPj.exit.i

_ZN3url11ReadUTFCharEPKtPiiPj.exit.i:             ; preds = %_ZN4base16IsValidCharacterEj.exit.thread6.i.i, %21, %17
  %25 = phi i32 [ %18, %17 ], [ %18, %21 ], [ 65533, %_ZN4base16IsValidCharacterEj.exit.thread6.i.i ]
  call void @_ZN3url12DoAppendUTF8INS_12CanonOutputTIcEETnPFvhPT_EXadL_ZNS_17AppendEscapedCharIhcEEvS3_PNS1_IT0_EEEEEEvjS4_(i32 noundef %25, ptr noundef %3)
  call void @llvm.lifetime.end.p0(i64 4, ptr nonnull %6) #7
  br label %_ZN3url12CanonOutputTIcE9push_backEc.exit.i

26:                                               ; preds = %10
  %27 = trunc nuw i16 %13 to i8
  %28 = zext nneg i16 %13 to i64
  %29 = getelementptr inbounds nuw [256 x i8], ptr @_ZN3url20kSharedCharTypeTableE, i64 0, i64 %28
  %30 = load i8, ptr %29, align 1, !tbaa !7
  %31 = zext i8 %30 to i32
  %32 = and i32 %2, %31
  %.not.i = icmp eq i32 %32, 0
  br i1 %.not.i, label %33, label %34

33:                                               ; preds = %26
  call void @_ZN3url17AppendEscapedCharIhcEEvT_PNS_12CanonOutputTIT0_EE(i8 noundef zeroext %27, ptr noundef %3)
  br label %_ZN3url12CanonOutputTIcE9push_backEc.exit.i

34:                                               ; preds = %26
  %35 = load i32, ptr %8, align 4, !tbaa !8
  %36 = load i32, ptr %9, align 8, !tbaa !12
  %37 = icmp slt i32 %35, %36
  br i1 %37, label %_ZN3url12CanonOutputTIcE4GrowEi.exit.sink.split.i.i, label %select.unfold.i.preheader.i.i

select.unfold.i.preheader.i.i:                    ; preds = %34
  %38 = icmp eq i32 %36, 0
  %spec.select = select i1 %38, i32 16, i32 %36
  br label %select.unfold.i.i.i

select.unfold.i.i.i:                              ; preds = %select.unfold.i.preheader.i.i, %40
  %.0.i.i.i = phi i32 [ %41, %40 ], [ %spec.select, %select.unfold.i.preheader.i.i ]
  %39 = icmp slt i32 %.0.i.i.i, 1073741824
  br i1 %39, label %40, label %_ZN3url12CanonOutputTIcE9push_backEc.exit.i

40:                                               ; preds = %select.unfold.i.i.i
  %41 = shl nsw i32 %.0.i.i.i, 1
  %.not.i.i = icmp sgt i32 %41, %36
  br i1 %.not.i.i, label %42, label %select.unfold.i.i.i, !llvm.loop !13

42:                                               ; preds = %40
  %43 = load ptr, ptr %3, align 8, !tbaa !15
  %44 = getelementptr inbounds nuw i8, ptr %43, i64 16
  %45 = load ptr, ptr %44, align 8
  call void %45(ptr noundef nonnull align 8 dereferenceable(24) %3, i32 noundef %41)
  %46 = load i32, ptr %8, align 4, !tbaa !8
  br label %_ZN3url12CanonOutputTIcE4GrowEi.exit.sink.split.i.i

_ZN3url12CanonOutputTIcE4GrowEi.exit.sink.split.i.i: ; preds = %42, %34
  %.sink.i.i = phi i32 [ %46, %42 ], [ %35, %34 ]
  %.sink3.i.i = load ptr, ptr %.sink3.in.i.i, align 8, !tbaa !17
  %47 = sext i32 %.sink.i.i to i64
  %48 = getelementptr inbounds i8, ptr %.sink3.i.i, i64 %47
  store i8 %27, ptr %48, align 1, !tbaa !7
  %49 = load i32, ptr %8, align 4, !tbaa !8
  %50 = add nsw i32 %49, 1
  store i32 %50, ptr %8, align 4, !tbaa !8
  br label %_ZN3url12CanonOutputTIcE9push_backEc.exit.i

_ZN3url12CanonOutputTIcE9push_backEc.exit.i:      ; preds = %select.unfold.i.i.i, %_ZN3url12CanonOutputTIcE4GrowEi.exit.sink.split.i.i, %33, %_ZN3url11ReadUTFCharEPKtPiiPj.exit.i
  %51 = load i32, ptr %5, align 4, !tbaa !3
  %52 = add nsw i32 %51, 1
  store i32 %52, ptr %5, align 4, !tbaa !3
  %53 = icmp slt i32 %52, %1
  br i1 %53, label %10, label %_ZN3url12_GLOBAL__N_120DoAppendStringOfTypeIttEEvPKT_iNS_15SharedCharTypesEPNS_12CanonOutputTIcEE.exit, !llvm.loop !21

_ZN3url12_GLOBAL__N_120DoAppendStringOfTypeIttEEvPKT_iNS_15SharedCharTypesEPNS_12CanonOutputTIcEE.exit: ; preds = %_ZN3url12CanonOutputTIcE9push_backEc.exit.i, %4
  call void @llvm.lifetime.end.p0(i64 4, ptr nonnull %5) #7
  ret void
}